target datalayout = "e-m:e-p270:32:32-p271:32:32-p272:64:64-i64:64-i128:128-f80:128-n8:16:32:64-S128"
target triple = "x86_64-pc-linux-gnu"

@.str = private unnamed_addr constant [15 x i8] c"server_version\00", align 1
@.str.1 = private unnamed_addr constant [101 x i8] c"incompatible server version %s; client does not support streaming from server versions older than %s\00", align 1
@.str.2 = private unnamed_addr constant [10 x i8] c"'unknown'\00", align 1
@.str.3 = private unnamed_addr constant [4 x i8] c"9.3\00", align 1
@.str.4 = private unnamed_addr constant [101 x i8] c"incompatible server version %s; client does not support streaming from server versions newer than %s\00", align 1
@.str.5 = private unnamed_addr constant [8 x i8] c"18devel\00", align 1

; Function Attrs: nounwind uwtable
define dso_local zeroext i1 @CheckServerVersionForStreaming(ptr noundef %0) #0 {
  %2 = alloca i1, align 1
  %3 = alloca ptr, align 8
  %4 = alloca i32, align 4
  %5 = alloca i32, align 4
  %6 = alloca i32, align 4
  %7 = alloca ptr, align 8
  %8 = alloca i32, align 4
  %9 = alloca ptr, align 8
  store ptr %0, ptr %3, align 8
  call void @llvm.lifetime.start.p0(i64 4, ptr %4) #9
  call void @llvm.lifetime.start.p0(i64 4, ptr %5) #9
  call void @llvm.lifetime.start.p0(i64 4, ptr %6) #9
  store i32 903, ptr %4, align 4
  store i32 1800, ptr %5, align 4
  %10 = load ptr, ptr %3, align 8
  %11 = call i32 @PQserverVersion(ptr noundef %10)
  %12 = sdiv i32 %11, 100
  store i32 %12, ptr %6, align 4
  %13 = load i32, ptr %6, align 4
  %14 = load i32, ptr %4, align 4
  %15 = icmp slt i32 %13, %14
  br i1 %15, label %16, label %26

16:                                               ; preds = %1
  call void @llvm.lifetime.start.p0(i64 8, ptr %7) #9
  %17 = load ptr, ptr %3, align 8
  %18 = call ptr @PQparameterStatus(ptr noundef %17, ptr noundef @.str)
  store ptr %18, ptr %7, align 8
  %19 = load ptr, ptr %7, align 8
  %20 = icmp ne ptr %19, null
  br i1 %20, label %21, label %23

21:                                               ; preds = %16
  %22 = load ptr, ptr %7, align 8
  br label %24

23:                                               ; preds = %16
  br label %24

24:                                               ; preds = %23, %21
  %25 = phi ptr [ %22, %21 ], [ @.str.2, %23 ]
  call void (i32, i32, ptr, ...) @pg_log_generic(i32 noundef 4, i32 noundef 0, ptr noundef @.str.1, ptr noundef %25, ptr noundef @.str.3)
  store i1 false, ptr %2, align 1
  store i32 1, ptr %8, align 4
  call void @llvm.lifetime.end.p0(i64 8, ptr %7) #9
  br label %42

26:                                               ; preds = %1
  %27 = load i32, ptr %6, align 4
  %28 = load i32, ptr %5, align 4
  %29 = icmp sgt i32 %27, %28
  br i1 %29, label %30, label %40

30:                                               ; preds = %26
  call void @llvm.lifetime.start.p0(i64 8, ptr %9) #9
  %31 = load ptr, ptr %3, align 8
  %32 = call ptr @PQparameterStatus(ptr noundef %31, ptr noundef @.str)
  store ptr %32, ptr %9, align 8
  %33 = load ptr, ptr %9, align 8
  %34 = icmp ne ptr %33, null
  br i1 %34, label %35, label %37

35:                                               ; preds = %30
  %36 = load ptr, ptr %9, align 8
  br label %38

37:                                               ; preds = %30
  br label %38

38:                                               ; preds = %37, %35
  %39 = phi ptr [ %36, %35 ], [ @.str.2, %37 ]
  call void (i32, i32, ptr, ...) @pg_log_generic(i32 noundef 4, i32 noundef 0, ptr noundef @.str.4, ptr noundef %39, ptr noundef @.str.5)
  store i1 false, ptr %2, align 1
  store i32 1, ptr %8, align 4
  call void @llvm.lifetime.end.p0(i64 8, ptr %9) #9
  br label %42

40:                                               ; preds = %26
  br label %41

41:                                               ; preds = %40
  store i1 true, ptr %2, align 1
  store i32 1, ptr %8, align 4
  br label %42

42:                                               ; preds = %41, %38, %24
  call void @llvm.lifetime.end.p0(i64 4, ptr %6) #9
  call void @llvm.lifetime.end.p0(i64 4, ptr %5) #9
  call void @llvm.lifetime.end.p0(i64 4, ptr %4) #9
  %43 = load i1, ptr %2, align 1
  ret i1 %43
}