; Function Attrs: nounwind uwtable
define dso_local noundef zeroext i1 @CheckServerVersionForStreaming(ptr noundef %0) local_unnamed_addr #0 {
  %2 = tail call i32 @PQserverVersion(ptr noundef %0) #11
  %3 = icmp slt i32 %2, 90300
  br i1 %3, label %4, label %7

4:                                                ; preds = %1
  %5 = tail call ptr @PQparameterStatus(ptr noundef %0, ptr noundef nonnull @.str) #11
  %.not12 = icmp eq ptr %5, null
  %6 = select i1 %.not12, ptr @.str.2, ptr %5
  tail call void (i32, i32, ptr, ...) @pg_log_generic(i32 noundef 4, i32 noundef 0, ptr noundef nonnull @.str.1, ptr noundef nonnull %6, ptr noundef nonnull @.str.3) #11
  br label %12

7:                                                ; preds = %1
  %8 = icmp samesign ugt i32 %2, 180099
  br i1 %8, label %9, label %12

9:                                                ; preds = %7
  %10 = tail call ptr @PQparameterStatus(ptr noundef %0, ptr noundef nonnull @.str) #11
  %.not = icmp eq ptr %10, null
  %11 = select i1 %.not, ptr @.str.2, ptr %10
  tail call void (i32, i32, ptr, ...) @pg_log_generic(i32 noundef 4, i32 noundef 0, ptr noundef nonnull @.str.4, ptr noundef nonnull %11, ptr noundef nonnull @.str.5) #11
  br label %12

12:                                               ; preds = %7, %9, %4
  %.0 = phi i1 [ false, %4 ], [ false, %9 ], [ true, %7 ]
  ret i1 %.0
}